target datalayout = "e-m:e-p270:32:32-p271:32:32-p272:64:64-i64:64-i128:128-f80:128-n8:16:32:64-S128"
target triple = "x86_64-pc-linux-gnu"

@.str = private unnamed_addr constant [5 x i8] c"pmix\00", align 1
@.str.1 = private unnamed_addr constant [5 x i8] c"pmdl\00", align 1
@.str.4 = private unnamed_addr constant [5 x i8] c"ompi\00", align 1
@.str.5 = private unnamed_addr constant [6 x i8] c"ompi5\00", align 1
@.str.6 = private unnamed_addr constant [6 x i8] c"ompi4\00", align 1

; Function Attrs: nounwind uwtable
define internal i32 @pmix_pmdl_register(i32 noundef %0) #1 {
  %2 = alloca i32, align 4
  %3 = alloca i32, align 4
  store i32 %0, ptr %3, align 4, !tbaa !3
  %4 = load i32, ptr %3, align 4, !tbaa !3
  %5 = icmp eq i32 2, %4
  br i1 %5, label %6, label %7

6:                                                ; preds = %1
  store i32 0, ptr %2, align 4
  br label %10

7:                                                ; preds = %1
  %8 = call i32 @pmix_mca_base_alias_register(ptr noundef @.str, ptr noundef @.str.1, ptr noundef @.str.4, ptr noundef @.str.5, i32 noundef 0)
  %9 = call i32 @pmix_mca_base_alias_register(ptr noundef @.str, ptr noundef @.str.1, ptr noundef @.str.4, ptr noundef @.str.6, i32 noundef 0)
  store i32 0, ptr %2, align 4
  br label %10

10:                                               ; preds = %7, %6
  %11 = load i32, ptr %2, align 4
  ret i32 %11
}