; Function Attrs: nounwind uwtable
define internal noundef i32 @pmix_pmdl_register(i32 noundef %0) #1 {
  %2 = icmp eq i32 %0, 2
  br i1 %2, label %6, label %3

3:                                                ; preds = %1
  %4 = tail call i32 @pmix_mca_base_alias_register(ptr noundef nonnull @.str, ptr noundef nonnull @.str.1, ptr noundef nonnull @.str.4, ptr noundef nonnull @.str.5, i32 noundef 0) #8
  %5 = tail call i32 @pmix_mca_base_alias_register(ptr noundef nonnull @.str, ptr noundef nonnull @.str.1, ptr noundef nonnull @.str.4, ptr noundef nonnull @.str.6, i32 noundef 0) #8
  br label %6

6:                                                ; preds = %1, %3
  ret i32 0
}